target datalayout = "e-m:e-p270:32:32-p271:32:32-p272:64:64-i64:64-i128:128-f80:128-n8:16:32:64-S128"
target triple = "x86_64-pc-linux-gnu"

%struct.LutContext = type { ptr, [4 x [65536 x i16]], [4 x ptr], [4 x ptr], i32, i32, [7 x double], i32, i32, i32, i32, i32 }

; Function Attrs: nounwind uwtable
define internal double @compute_gammaval(ptr noundef %0, double noundef %1) #1 {
  %3 = alloca ptr, align 8
  %4 = alloca double, align 8
  %5 = alloca ptr, align 8
  %6 = alloca double, align 8
  %7 = alloca double, align 8
  %8 = alloca double, align 8
  store ptr %0, ptr %3, align 8, !tbaa !34
  store double %1, ptr %4, align 8, !tbaa !73
  call void @llvm.lifetime.start.p0(i64 8, ptr %5) #8
  %9 = load ptr, ptr %3, align 8, !tbaa !34
  store ptr %9, ptr %5, align 8, !tbaa !22
  call void @llvm.lifetime.start.p0(i64 8, ptr %6) #8
  %10 = load ptr, ptr %5, align 8, !tbaa !22
  %11 = getelementptr inbounds nuw %struct.LutContext, ptr %10, i32 0, i32 6
  %12 = getelementptr inbounds [7 x double], ptr %11, i64 0, i64 6
  %13 = load double, ptr %12, align 8, !tbaa !73
  store double %13, ptr %6, align 8, !tbaa !73
  call void @llvm.lifetime.start.p0(i64 8, ptr %7) #8
  %14 = load ptr, ptr %5, align 8, !tbaa !22
  %15 = getelementptr inbounds nuw %struct.LutContext, ptr %14, i32 0, i32 6
  %16 = getelementptr inbounds [7 x double], ptr %15, i64 0, i64 4
  %17 = load double, ptr %16, align 8, !tbaa !73
  store double %17, ptr %7, align 8, !tbaa !73
  call void @llvm.lifetime.start.p0(i64 8, ptr %8) #8
  %18 = load ptr, ptr %5, align 8, !tbaa !22
  %19 = getelementptr inbounds nuw %struct.LutContext, ptr %18, i32 0, i32 6
  %20 = getelementptr inbounds [7 x double], ptr %19, i64 0, i64 3
  %21 = load double, ptr %20, align 8, !tbaa !73
  store double %21, ptr %8, align 8, !tbaa !73
  %22 = load double, ptr %6, align 8, !tbaa !73
  %23 = load double, ptr %7, align 8, !tbaa !73
  %24 = fsub nsz double %22, %23
  %25 = load double, ptr %8, align 8, !tbaa !73
  %26 = load double, ptr %7, align 8, !tbaa !73
  %27 = fsub nsz double %25, %26
  %28 = fdiv nsz double %24, %27
  %29 = load double, ptr %4, align 8, !tbaa !73
  %30 = call nsz double @llvm.pow.f64(double %28, double %29)
  %31 = load double, ptr %8, align 8, !tbaa !73
  %32 = load double, ptr %7, align 8, !tbaa !73
  %33 = fsub nsz double %31, %32
  %34 = load double, ptr %7, align 8, !tbaa !73
  %35 = call nsz double @llvm.fmuladd.f64(double %30, double %33, double %34)
  call void @llvm.lifetime.end.p0(i64 8, ptr %8) #8
  call void @llvm.lifetime.end.p0(i64 8, ptr %7) #8
  call void @llvm.lifetime.end.p0(i64 8, ptr %6) #8
  call void @llvm.lifetime.end.p0(i64 8, ptr %5) #8
  ret double %35
}