; Function Attrs: mustprogress nofree norecurse nosync nounwind willreturn memory(argmem: read) uwtable
define internal double @compute_gammaval(ptr noundef readonly captures(none) %0, double noundef %1) #7 {
  %3 = getelementptr inbounds nuw i8, ptr %0, i64 524416
  %4 = load double, ptr %3, align 8, !tbaa !63
  %5 = getelementptr inbounds nuw i8, ptr %0, i64 524400
  %6 = load double, ptr %5, align 8, !tbaa !63
  %7 = getelementptr inbounds nuw i8, ptr %0, i64 524392
  %8 = load double, ptr %7, align 8, !tbaa !63
  %9 = fsub nsz double %4, %6
  %10 = fsub nsz double %8, %6
  %11 = fdiv nsz double %9, %10
  %12 = tail call nsz double @llvm.pow.f64(double %11, double %1)
  %13 = tail call nsz double @llvm.fmuladd.f64(double %12, double %10, double %6)
  ret double %13
}